; Function Attrs: nounwind uwtable
define noundef ptr @PQencryptPassword(ptr noundef %0, ptr noundef %1) local_unnamed_addr #0 {
  %3 = alloca ptr, align 8
  call void @llvm.lifetime.start.p0(i64 8, ptr nonnull %3) #10
  store ptr null, ptr %3, align 8
  %4 = tail call noalias dereferenceable_or_null(36) ptr @malloc(i64 noundef 36) #11
  %.not = icmp eq ptr %4, null
  br i1 %.not, label %9, label %5

5:                                                ; preds = %2
  %6 = tail call i64 @strlen(ptr noundef nonnull dereferenceable(1) %1) #12
  %7 = call zeroext i1 @pg_md5_encrypt(ptr noundef %0, ptr noundef nonnull %1, i64 noundef %6, ptr noundef nonnull %4, ptr noundef nonnull %3) #10
  br i1 %7, label %9, label %8

8:                                                ; preds = %5
  call void @free(ptr noundef nonnull %4) #10
  br label %9

9:                                                ; preds = %5, %2, %8
  %.0 = phi ptr [ null, %8 ], [ null, %2 ], [ %4, %5 ]
  call void @llvm.lifetime.end.p0(i64 8, ptr nonnull %3) #10
  ret ptr %.0
}